; ModuleID = '44/814.c'
source_filename = "44/814.c"
target datalayout = "e-m:e-p270:32:32-p271:32:32-p272:64:64-i64:64-f80:128-n8:16:32:64-S128"
target triple = "x86_64-pc-linux-gnu"

@.str = private unnamed_addr constant [3 x i8] c"%d\00", align 1
@.str.1 = private unnamed_addr constant [4 x i8] c"%d\0A\00", align 1

; Function Attrs: noinline nounwind uwtable
define dso_local i32 @fan(i32 %0) #0 {
  %2 = alloca i32, align 4
  %3 = alloca i32, align 4
  %4 = alloca i32, align 4
  %5 = alloca [100 x i32], align 16
  %6 = alloca [200 x i32], align 16
  %7 = alloca i32, align 4
  %8 = alloca i32, align 4
  store i32 %0, i32* %3, align 4
  store i32 0, i32* %7, align 4
  store i32 0, i32* %8, align 4
  %9 = load i32, i32* %3, align 4
  %10 = icmp sge i32 %9, 0
  br i1 %10, label %11, label %60

11:                                               ; preds = %1
  store i32 1, i32* %4, align 4
  br label %12

12:                                               ; preds = %31, %11
  %13 = load i32, i32* %3, align 4
  %14 = srem i32 %13, 10
  %15 = load i32, i32* %4, align 4
  %16 = sext i32 %15 to i64
  %17 = getelementptr inbounds [200 x i32], [200 x i32]* %6, i64 0, i64 %16
  store i32 %14, i32* %17, align 4
  %18 = load i32, i32* %3, align 4
  %19 = load i32, i32* %4, align 4
  %20 = sext i32 %19 to i64
  %21 = getelementptr inbounds [200 x i32], [200 x i32]* %6, i64 0, i64 %20
  %22 = load i32, i32* %21, align 4
  %23 = sub nsw i32 %18, %22
  %24 = sdiv i32 %23, 10
  store i32 %24, i32* %3, align 4
  %25 = load i32, i32* %7, align 4
  %26 = add nsw i32 %25, 1
  store i32 %26, i32* %7, align 4
  %27 = load i32, i32* %3, align 4
  %28 = icmp eq i32 %27, 0
  br i1 %28, label %29, label %30

29:                                               ; preds = %12
  br label %34

30:                                               ; preds = %12
  br label %31

31:                                               ; preds = %30
  %32 = load i32, i32* %4, align 4
  %33 = add nsw i32 %32, 1
  store i32 %33, i32* %4, align 4
  br label %12

34:                                               ; preds = %29
  %35 = load i32, i32* %7, align 4
  store i32 %35, i32* %4, align 4
  br label %36

36:                                               ; preds = %55, %34
  %37 = load i32, i32* %4, align 4
  %38 = icmp sge i32 %37, 1
  br i1 %38, label %39, label %58

39:                                               ; preds = %36
  %40 = load i32, i32* %4, align 4
  %41 = sext i32 %40 to i64
  %42 = getelementptr inbounds [200 x i32], [200 x i32]* %6, i64 0, i64 %41
  %43 = load i32, i32* %42, align 4
  %44 = sitofp i32 %43 to double
  %45 = load i32, i32* %7, align 4
  %46 = load i32, i32* %4, align 4
  %47 = sub nsw i32 %45, %46
  %48 = sitofp i32 %47 to double
  %49 = call double @pow(double 1.000000e+01, double %48) #3
  %50 = fmul double %44, %49
  %51 = load i32, i32* %8, align 4
  %52 = sitofp i32 %51 to double
  %53 = fadd double %52, %50
  %54 = fptosi double %53 to i32
  store i32 %54, i32* %8, align 4
  br label %55

55:                                               ; preds = %39
  %56 = load i32, i32* %4, align 4
  %57 = add nsw i32 %56, -1
  store i32 %57, i32* %4, align 4
  br label %36

58:                                               ; preds = %36
  %59 = load i32, i32* %8, align 4
  store i32 %59, i32* %2, align 4
  br label %115

60:                                               ; preds = %1
  %61 = load i32, i32* %3, align 4
  %62 = icmp slt i32 %61, 0
  br i1 %62, label %63, label %115

63:                                               ; preds = %60
  %64 = load i32, i32* %3, align 4
  %65 = mul nsw i32 -1, %64
  store i32 %65, i32* %3, align 4
  store i32 1, i32* %4, align 4
  br label %66

66:                                               ; preds = %85, %63
  %67 = load i32, i32* %3, align 4
  %68 = srem i32 %67, 10
  %69 = load i32, i32* %4, align 4
  %70 = sext i32 %69 to i64
  %71 = getelementptr inbounds [200 x i32], [200 x i32]* %6, i64 0, i64 %70
  store i32 %68, i32* %71, align 4
  %72 = load i32, i32* %3, align 4
  %73 = load i32, i32* %4, align 4
  %74 = sext i32 %73 to i64
  %75 = getelementptr inbounds [200 x i32], [200 x i32]* %6, i64 0, i64 %74
  %76 = load i32, i32* %75, align 4
  %77 = sub nsw i32 %72, %76
  %78 = sdiv i32 %77, 10
  store i32 %78, i32* %3, align 4
  %79 = load i32, i32* %7, align 4
  %80 = add nsw i32 %79, 1
  store i32 %80, i32* %7, align 4
  %81 = load i32, i32* %3, align 4
  %82 = icmp eq i32 %81, 0
  br i1 %82, label %83, label %84

83:                                               ; preds = %66
  br label %88

84:                                               ; preds = %66
  br label %85

85:                                               ; preds = %84
  %86 = load i32, i32* %4, align 4
  %87 = add nsw i32 %86, 1
  store i32 %87, i32* %4, align 4
  br label %66

88:                                               ; preds = %83
  %89 = load i32, i32* %7, align 4
  store i32 %89, i32* %4, align 4
  br label %90

90:                                               ; preds = %109, %88
  %91 = load i32, i32* %4, align 4
  %92 = icmp sge i32 %91, 1
  br i1 %92, label %93, label %112

93:                                               ; preds = %90
  %94 = load i32, i32* %4, align 4
  %95 = sext i32 %94 to i64
  %96 = getelementptr inbounds [200 x i32], [200 x i32]* %6, i64 0, i64 %95
  %97 = load i32, i32* %96, align 4
  %98 = sitofp i32 %97 to double
  %99 = load i32, i32* %7, align 4
  %100 = load i32, i32* %4, align 4
  %101 = sub nsw i32 %99, %100
  %102 = sitofp i32 %101 to double
  %103 = call double @pow(double 1.000000e+01, double %102) #3
  %104 = fmul double %98, %103
  %105 = load i32, i32* %8, align 4
  %106 = sitofp i32 %105 to double
  %107 = fadd double %106, %104
  %108 = fptosi double %107 to i32
  store i32 %108, i32* %8, align 4
  br label %109

109:                                              ; preds = %93
  %110 = load i32, i32* %4, align 4
  %111 = add nsw i32 %110, -1
  store i32 %111, i32* %4, align 4
  br label %90

112:                                              ; preds = %90
  %113 = load i32, i32* %8, align 4
  %114 = mul nsw i32 -1, %113
  store i32 %114, i32* %2, align 4
  br label %115

115:                                              ; preds = %58, %112, %60
  %116 = load i32, i32* %2, align 4
  ret i32 %116
}

; Function Attrs: nounwind
declare dso_local double @pow(double, double) #1

; Function Attrs: noinline nounwind uwtable
define dso_local i32 @main() #0 {
  %1 = alloca i32, align 4
  %2 = alloca [6 x i32], align 16
  %3 = alloca i32, align 4
  store i32 0, i32* %1, align 4
  store i32 0, i32* %3, align 4
  br label %4

4:                                                ; preds = %20, %0
  %5 = load i32, i32* %3, align 4
  %6 = icmp sle i32 %5, 5
  br i1 %6, label %7, label %23

7:                                                ; preds = %4
  %8 = load i32, i32* %3, align 4
  %9 = sext i32 %8 to i64
  %10 = getelementptr inbounds [6 x i32], [6 x i32]* %2, i64 0, i64 %9
  %11 = call i32 (i8*, ...) @__isoc99_scanf(i8* getelementptr inbounds ([3 x i8], [3 x i8]* @.str, i64 0, i64 0), i32* %10)
  %12 = load i32, i32* %3, align 4
  %13 = sext i32 %12 to i64
  %14 = getelementptr inbounds [6 x i32], [6 x i32]* %2, i64 0, i64 %13
  %15 = load i32, i32* %14, align 4
  %16 = call i32 @fan(i32 %15)
  %17 = load i32, i32* %3, align 4
  %18 = sext i32 %17 to i64
  %19 = getelementptr inbounds [6 x i32], [6 x i32]* %2, i64 0, i64 %18
  store i32 %16, i32* %19, align 4
  br label %20

20:                                               ; preds = %7
  %21 = load i32, i32* %3, align 4
  %22 = add nsw i32 %21, 1
  store i32 %22, i32* %3, align 4
  br label %4

23:                                               ; preds = %4
  store i32 0, i32* %3, align 4
  br label %24

24:                                               ; preds = %33, %23
  %25 = load i32, i32* %3, align 4
  %26 = icmp sle i32 %25, 5
  br i1 %26, label %27, label %36

27:                                               ; preds = %24
  %28 = load i32, i32* %3, align 4
  %29 = sext i32 %28 to i64
  %30 = getelementptr inbounds [6 x i32], [6 x i32]* %2, i64 0, i64 %29
  %31 = load i32, i32* %30, align 4
  %32 = call i32 (i8*, ...) @printf(i8* getelementptr inbounds ([4 x i8], [4 x i8]* @.str.1, i64 0, i64 0), i32 %31)
  br label %33

33:                                               ; preds = %27
  %34 = load i32, i32* %3, align 4
  %35 = add nsw i32 %34, 1
  store i32 %35, i32* %3, align 4
  br label %24

36:                                               ; preds = %24
  ret i32 0
}

declare dso_local i32 @__isoc99_scanf(i8*, ...) #2

declare dso_local i32 @printf(i8*, ...) #2


!llvm.module.flags = !{!0}
!llvm.ident = !{!1}

!0 = !{i32 1, !"wchar_size", i32 4}
!1 = !{!"clang version 10.0.0-4ubuntu1 "}
